; Function Attrs: mustprogress uwtable
define dso_local void @_ZN4i18n12phonenumbers13safe_strtou64ERKNSt7__cxx1112basic_stringIcSt11char_traitsIcESaIcEEEPm(ptr noundef nonnull readonly align 8 captures(none) dereferenceable(32) %0, ptr noundef writeonly captures(none) %1) local_unnamed_addr #0 personality ptr @__gxx_personality_v0 {
  %3 = alloca i64, align 8
  %4 = getelementptr inbounds nuw i8, ptr %0, i64 8
  %5 = load i64, ptr %4, align 8, !tbaa !10
  %6 = icmp sgt i64 %5, -1
  br i1 %6, label %_ZN4absl7debian211string_viewC2ISaIcEEERKNSt7__cxx1112basic_stringIcSt11char_traitsIcET_EE.exit.i, label %7, !prof !17

7:                                                ; preds = %2
  tail call void @llvm.trap()
  unreachable

_ZN4absl7debian211string_viewC2ISaIcEEERKNSt7__cxx1112basic_stringIcSt11char_traitsIcET_EE.exit.i: ; preds = %2
  %8 = load ptr, ptr %0, align 8, !tbaa !14
  call void @llvm.lifetime.start.p0(i64 8, ptr nonnull %3) #19
  %9 = call noundef zeroext i1 @_ZN4absl7debian216numbers_internal18safe_strtou64_baseENS0_11string_viewEPmi(ptr %8, i64 %5, ptr noundef nonnull %3, i32 noundef 10)
  %10 = load i64, ptr %3, align 8, !tbaa !22
  store i64 %10, ptr %1, align 8, !tbaa !22
  call void @llvm.lifetime.end.p0(i64 8, ptr nonnull %3) #19
  br i1 %9, label %_ZN4i18n12phonenumbers11GenericAtoiImEEvRKNSt7__cxx1112basic_stringIcSt11char_traitsIcESaIcEEEPT_.exit, label %11

11:                                               ; preds = %_ZN4absl7debian211string_viewC2ISaIcEEERKNSt7__cxx1112basic_stringIcSt11char_traitsIcET_EE.exit.i
  store i64 0, ptr %1, align 8, !tbaa !22
  br label %_ZN4i18n12phonenumbers11GenericAtoiImEEvRKNSt7__cxx1112basic_stringIcSt11char_traitsIcESaIcEEEPT_.exit

_ZN4i18n12phonenumbers11GenericAtoiImEEvRKNSt7__cxx1112basic_stringIcSt11char_traitsIcESaIcEEEPT_.exit: ; preds = %_ZN4absl7debian211string_viewC2ISaIcEEERKNSt7__cxx1112basic_stringIcSt11char_traitsIcET_EE.exit.i, %11
  ret void
}